(dp0
I0
ccopy_reg
_reconstructor
p1
(cLand
Land
p2
c__builtin__
object
p3
Ntp4
Rp5
(dp6
S'is_capital'
p7
I00
sS'is_barn'
p8
I00
sS'unmanning'
p9
(dp10
S'K'
p11
(lp12
sS'W'
p13
(lp14
ssS'deployment'
p15
(lp16
sS'owner'
p17
NsS'type'
p18
I0
sS'id'
p19
I0
sbsI1
g1
(g2
g3
Ntp20
Rp21
(dp22
g7
I00
sg8
I00
sg9
g10
sg15
(lp23
sg17
Nsg18
I0
sg19
I1
sbsI2
g1
(g2
g3
Ntp24
Rp25
(dp26
g7
I00
sg8
I00
sg9
g10
sg15
(lp27
sg17
Nsg18
I0
sg19
I2
sbsI3
g1
(g2
g3
Ntp28
Rp29
(dp30
g7
I00
sg8
I00
sg9
g10
sg15
(lp31
sg17
Nsg18
I1
sg19
I3
sbsI4
g1
(g2
g3
Ntp32
Rp33
(dp34
g7
I00
sg8
I00
sg9
g10
sg15
(lp35
sg17
Nsg18
I3
sg19
I4
sbsI5
g1
(g2
g3
Ntp36
Rp37
(dp38
g7
I00
sg8
I00
sg9
g10
sg15
(lp39
sg17
Nsg18
I1
sg19
I5
sbsI6
g1
(g2
g3
Ntp40
Rp41
(dp42
g7
I00
sg8
I00
sg9
g10
sg15
(lp43
sg17
Nsg18
I2
sg19
I6
sbsI7
g1
(g2
g3
Ntp44
Rp45
(dp46
g7
I00
sg8
I00
sg9
g10
sg15
(lp47
sg17
Nsg18
I1
sg19
I7
sbsI8
g1
(g2
g3
Ntp48
Rp49
(dp50
g7
I00
sg8
I00
sg9
g10
sg15
(lp51
sg17
Nsg18
I1
sg19
I8
sbsI9
g1
(g2
g3
Ntp52
Rp53
(dp54
g7
I00
sg8
I00
sg9
g10
sg15
(lp55
sg17
Nsg18
I1
sg19
I9
sbsI10
g1
(g2
g3
Ntp56
Rp57
(dp58
g7
I00
sg8
I00
sg9
g10
sg15
(lp59
sg17
Nsg18
I0
sg19
I10
sbsI11
g1
(g2
g3
Ntp60
Rp61
(dp62
g7
I00
sg8
I00
sg9
g10
sg15
(lp63
sg17
Nsg18
I0
sg19
I11
sbsI12
g1
(g2
g3
Ntp64
Rp65
(dp66
g7
I00
sg8
I00
sg9
g10
sg15
(lp67
sg17
Nsg18
I0
sg19
I12
sbsI13
g1
(g2
g3
Ntp68
Rp69
(dp70
g7
I00
sg8
I00
sg9
g10
sg15
(lp71
sg17
Nsg18
I0
sg19
I13
sbsI14
g1
(g2
g3
Ntp72
Rp73
(dp74
g7
I00
sg8
I00
sg9
g10
sg15
(lp75
sg17
Nsg18
I3
sg19
I14
sbsI15
g1
(g2
g3
Ntp76
Rp77
(dp78
g7
I00
sg8
I00
sg9
g10
sg15
(lp79
sg17
Nsg18
I1
sg19
I15
sbsI16
g1
(g2
g3
Ntp80
Rp81
(dp82
g7
I00
sg8
I00
sg9
g10
sg15
(lp83
sg17
Nsg18
I3
sg19
I16
sbsI17
g1
(g2
g3
Ntp84
Rp85
(dp86
g7
I00
sg8
I00
sg9
g10
sg15
(lp87
sg17
Nsg18
I1
sg19
I17
sbsI18
g1
(g2
g3
Ntp88
Rp89
(dp90
g7
I00
sg8
I00
sg9
g10
sg15
(lp91
sg17
Nsg18
I1
sg19
I18
sbsI19
g1
(g2
g3
Ntp92
Rp93
(dp94
g7
I00
sg8
I00
sg9
g10
sg15
(lp95
sg17
Nsg18
I2
sg19
I19
sbsI20
g1
(g2
g3
Ntp96
Rp97
(dp98
g7
I00
sg8
I00
sg9
g10
sg15
(lp99
sg17
Nsg18
I1
sg19
I20
sbsI21
g1
(g2
g3
Ntp100
Rp101
(dp102
g7
I00
sg8
I00
sg9
g10
sg15
(lp103
sg17
Nsg18
I1
sg19
I21
sbsI22
g1
(g2
g3
Ntp104
Rp105
(dp106
g7
I00
sg8
I00
sg9
g10
sg15
(lp107
sg17
Nsg18
I1
sg19
I22
sbsI23
g1
(g2
g3
Ntp108
Rp109
(dp110
g7
I00
sg8
I00
sg9
g10
sg15
(lp111
sg17
Nsg18
I1
sg19
I23
sbsI24
g1
(g2
g3
Ntp112
Rp113
(dp114
g7
I00
sg8
I00
sg9
g10
sg15
(lp115
sg17
Nsg18
I1
sg19
I24
sbsI25
g1
(g2
g3
Ntp116
Rp117
(dp118
g7
I00
sg8
I00
sg9
g10
sg15
(lp119
sg17
Nsg18
I1
sg19
I25
sbsI26
g1
(g2
g3
Ntp120
Rp121
(dp122
g7
I00
sg8
I00
sg9
g10
sg15
(lp123
sg17
Nsg18
I3
sg19
I26
sbsI27
g1
(g2
g3
Ntp124
Rp125
(dp126
g7
I00
sg8
I00
sg9
g10
sg15
(lp127
sg17
Nsg18
I1
sg19
I27
sbsI28
g1
(g2
g3
Ntp128
Rp129
(dp130
g7
I00
sg8
I00
sg9
g10
sg15
(lp131
sg17
Nsg18
I1
sg19
I28
sbsI29
g1
(g2
g3
Ntp132
Rp133
(dp134
g7
I00
sg8
I00
sg9
g10
sg15
(lp135
sg17
Nsg18
I3
sg19
I29
sbsI30
g1
(g2
g3
Ntp136
Rp137
(dp138
g7
I00
sg8
I00
sg9
g10
sg15
(lp139
sg17
Nsg18
I0
sg19
I30
sbsI31
g1
(g2
g3
Ntp140
Rp141
(dp142
g7
I00
sg8
I00
sg9
g10
sg15
(lp143
sg17
Nsg18
I0
sg19
I31
sbsI32
g1
(g2
g3
Ntp144
Rp145
(dp146
g7
I00
sg8
I00
sg9
g10
sg15
(lp147
sg17
Nsg18
I0
sg19
I32
sbsI33
g1
(g2
g3
Ntp148
Rp149
(dp150
g7
I00
sg8
I00
sg9
g10
sg15
(lp151
sg17
Nsg18
I3
sg19
I33
sbsI34
g1
(g2
g3
Ntp152
Rp153
(dp154
g7
I00
sg8
I00
sg9
g10
sg15
(lp155
sg17
Nsg18
I0
sg19
I34
sbsI35
g1
(g2
g3
Ntp156
Rp157
(dp158
g7
I00
sg8
I00
sg9
g10
sg15
(lp159
sg17
Nsg18
I2
sg19
I35
sbsI36
g1
(g2
g3
Ntp160
Rp161
(dp162
g7
I00
sg8
I00
sg9
g10
sg15
(lp163
sg17
Nsg18
I1
sg19
I36
sbsI37
g1
(g2
g3
Ntp164
Rp165
(dp166
g7
I00
sg8
I00
sg9
g10
sg15
(lp167
sg17
Nsg18
I3
sg19
I37
sbsI38
g1
(g2
g3
Ntp168
Rp169
(dp170
g7
I00
sg8
I00
sg9
g10
sg15
(lp171
sg17
Nsg18
I1
sg19
I38
sbsI39
g1
(g2
g3
Ntp172
Rp173
(dp174
g7
I00
sg8
I00
sg9
g10
sg15
(lp175
sg17
Nsg18
I2
sg19
I39
sbsI40
g1
(g2
g3
Ntp176
Rp177
(dp178
g7
I00
sg8
I00
sg9
g10
sg15
(lp179
sg17
Nsg18
I1
sg19
I40
sbsI41
g1
(g2
g3
Ntp180
Rp181
(dp182
g7
I00
sg8
I00
sg9
g10
sg15
(lp183
sg17
Nsg18
I1
sg19
I41
sbsI42
g1
(g2
g3
Ntp184
Rp185
(dp186
g7
I00
sg8
I00
sg9
g10
sg15
(lp187
sg17
Nsg18
I3
sg19
I42
sbsI43
g1
(g2
g3
Ntp188
Rp189
(dp190
g7
I00
sg8
I00
sg9
g10
sg15
(lp191
sg17
Nsg18
I1
sg19
I43
sbsI44
g1
(g2
g3
Ntp192
Rp193
(dp194
g7
I00
sg8
I00
sg9
g10
sg15
(lp195
sg17
Nsg18
I1
sg19
I44
sbsI45
g1
(g2
g3
Ntp196
Rp197
(dp198
g7
I00
sg8
I00
sg9
g10
sg15
(lp199
sg17
Nsg18
I0
sg19
I45
sbsI46
g1
(g2
g3
Ntp200
Rp201
(dp202
g7
I00
sg8
I00
sg9
g10
sg15
(lp203
sg17
Nsg18
I2
sg19
I46
sbsI47
g1
(g2
g3
Ntp204
Rp205
(dp206
g7
I00
sg8
I00
sg9
g10
sg15
(lp207
sg17
Nsg18
I3
sg19
I47
sbsI48
g1
(g2
g3
Ntp208
Rp209
(dp210
g7
I00
sg8
I00
sg9
g10
sg15
(lp211
sg17
Nsg18
I1
sg19
I48
sbsI49
g1
(g2
g3
Ntp212
Rp213
(dp214
g7
I00
sg8
I00
sg9
g10
sg15
(lp215
sg17
Nsg18
I1
sg19
I49
sbsI50
g1
(g2
g3
Ntp216
Rp217
(dp218
g7
I00
sg8
I00
sg9
g10
sg15
(lp219
sg17
Nsg18
I1
sg19
I50
sbsI51
g1
(g2
g3
Ntp220
Rp221
(dp222
g7
I00
sg8
I00
sg9
g10
sg15
(lp223
sg17
Nsg18
I1
sg19
I51
sbsI52
g1
(g2
g3
Ntp224
Rp225
(dp226
g7
I00
sg8
I00
sg9
g10
sg15
(lp227
sg17
Nsg18
I1
sg19
I52
sbsI53
g1
(g2
g3
Ntp228
Rp229
(dp230
g7
I00
sg8
I00
sg9
g10
sg15
(lp231
sg17
Nsg18
I3
sg19
I53
sbsI54
g1
(g2
g3
Ntp232
Rp233
(dp234
g7
I00
sg8
I00
sg9
g10
sg15
(lp235
sg17
Nsg18
I1
sg19
I54
sbsI55
g1
(g2
g3
Ntp236
Rp237
(dp238
g7
I00
sg8
I00
sg9
g10
sg15
(lp239
sg17
Nsg18
I1
sg19
I55
sbsI56
g1
(g2
g3
Ntp240
Rp241
(dp242
g7
I00
sg8
I00
sg9
g10
sg15
(lp243
sg17
Nsg18
I1
sg19
I56
sbsI57
g1
(g2
g3
Ntp244
Rp245
(dp246
g7
I00
sg8
I00
sg9
g10
sg15
(lp247
sg17
Nsg18
I1
sg19
I57
sbsI58
g1
(g2
g3
Ntp248
Rp249
(dp250
g7
I00
sg8
I00
sg9
g10
sg15
(lp251
sg17
Nsg18
I0
sg19
I58
sbsI59
g1
(g2
g3
Ntp252
Rp253
(dp254
g7
I00
sg8
I00
sg9
g10
sg15
(lp255
sg17
Nsg18
I3
sg19
I59
sbsI60
g1
(g2
g3
Ntp256
Rp257
(dp258
g7
I00
sg8
I00
sg9
g10
sg15
(lp259
sg17
Nsg18
I2
sg19
I60
sbsI61
g1
(g2
g3
Ntp260
Rp261
(dp262
g7
I00
sg8
I00
sg9
g10
sg15
(lp263
sg17
Nsg18
I1
sg19
I61
sbsI62
g1
(g2
g3
Ntp264
Rp265
(dp266
g7
I00
sg8
I00
sg9
g10
sg15
(lp267
sg17
Nsg18
I2
sg19
I62
sbsI63
g1
(g2
g3
Ntp268
Rp269
(dp270
g7
I00
sg8
I00
sg9
g10
sg15
(lp271
sg17
Nsg18
I2
sg19
I63
sbsI64
g1
(g2
g3
Ntp272
Rp273
(dp274
g7
I00
sg8
I00
sg9
g10
sg15
(lp275
sg17
Nsg18
I1
sg19
I64
sbsI65
g1
(g2
g3
Ntp276
Rp277
(dp278
g7
I00
sg8
I00
sg9
g10
sg15
(lp279
sg17
Nsg18
I3
sg19
I65
sbsI66
g1
(g2
g3
Ntp280
Rp281
(dp282
g7
I00
sg8
I00
sg9
g10
sg15
(lp283
sg17
Nsg18
I0
sg19
I66
sbsI67
g1
(g2
g3
Ntp284
Rp285
(dp286
g7
I00
sg8
I00
sg9
g10
sg15
(lp287
sg17
Nsg18
I1
sg19
I67
sbsI68
g1
(g2
g3
Ntp288
Rp289
(dp290
g7
I00
sg8
I00
sg9
g10
sg15
(lp291
sg17
Nsg18
I3
sg19
I68
sbs.