(dp0
I0
ccopy_reg
_reconstructor
p1
(cLand
Land
p2
c__builtin__
object
p3
Ntp4
Rp5
(dp6
S'is_capital'
p7
I00
sS'is_barn'
p8
I00
sS'unmanning'
p9
(dp10
S'K'
p11
(lp12
sS'W'
p13
(lp14
ssS'deployment'
p15
(lp16
sS'owner'
p17
NsS'type'
p18
I0
sS'id'
p19
I0
sbsI1
g1
(g2
g3
Ntp20
Rp21
(dp22
g7
I00
sg8
I00
sg9
(dp23
g11
(lp24
sg13
(lp25
ssg15
(lp26
sg17
Nsg18
I0
sg19
I1
sbsI2
g1
(g2
g3
Ntp27
Rp28
(dp29
g7
I00
sg8
I00
sg9
(dp30
g11
(lp31
sg13
(lp32
ssg15
(lp33
sg17
Nsg18
I0
sg19
I2
sbsI3
g1
(g2
g3
Ntp34
Rp35
(dp36
g7
I00
sg8
I00
sg9
(dp37
g11
(lp38
sg13
(lp39
ssg15
(lp40
sg17
Nsg18
I1
sg19
I3
sbsI4
g1
(g2
g3
Ntp41
Rp42
(dp43
g7
I00
sg8
I00
sg9
(dp44
g11
(lp45
sg13
(lp46
ssg15
(lp47
sg17
Nsg18
I3
sg19
I4
sbsI5
g1
(g2
g3
Ntp48
Rp49
(dp50
g7
I00
sg8
I00
sg9
(dp51
g11
(lp52
sg13
(lp53
ssg15
(lp54
sg17
Nsg18
I1
sg19
I5
sbsI6
g1
(g2
g3
Ntp55
Rp56
(dp57
g7
I00
sg8
I00
sg9
(dp58
g11
(lp59
sg13
(lp60
ssg15
(lp61
sg17
Nsg18
I2
sg19
I6
sbsI7
g1
(g2
g3
Ntp62
Rp63
(dp64
g7
I00
sg8
I00
sg9
(dp65
g11
(lp66
sg13
(lp67
ssg15
(lp68
sg17
Nsg18
I1
sg19
I7
sbsI8
g1
(g2
g3
Ntp69
Rp70
(dp71
g7
I00
sg8
I00
sg9
(dp72
g11
(lp73
sg13
(lp74
ssg15
(lp75
sg17
Nsg18
I1
sg19
I8
sbsI9
g1
(g2
g3
Ntp76
Rp77
(dp78
g7
I00
sg8
I00
sg9
(dp79
g11
(lp80
sg13
(lp81
ssg15
(lp82
sg17
Nsg18
I1
sg19
I9
sbsI10
g1
(g2
g3
Ntp83
Rp84
(dp85
g7
I00
sg8
I00
sg9
(dp86
g11
(lp87
sg13
(lp88
ssg15
(lp89
sg17
Nsg18
I0
sg19
I10
sbsI11
g1
(g2
g3
Ntp90
Rp91
(dp92
g7
I00
sg8
I00
sg9
(dp93
g11
(lp94
sg13
(lp95
ssg15
(lp96
sg17
Nsg18
I0
sg19
I11
sbsI12
g1
(g2
g3
Ntp97
Rp98
(dp99
g7
I00
sg8
I00
sg9
(dp100
g11
(lp101
sg13
(lp102
ssg15
(lp103
sg17
Nsg18
I0
sg19
I12
sbsI13
g1
(g2
g3
Ntp104
Rp105
(dp106
g7
I00
sg8
I00
sg9
(dp107
g11
(lp108
sg13
(lp109
ssg15
(lp110
sg17
Nsg18
I0
sg19
I13
sbsI14
g1
(g2
g3
Ntp111
Rp112
(dp113
g7
I00
sg8
I00
sg9
(dp114
g11
(lp115
sg13
(lp116
ssg15
(lp117
sg17
Nsg18
I3
sg19
I14
sbsI15
g1
(g2
g3
Ntp118
Rp119
(dp120
g7
I00
sg8
I00
sg9
(dp121
g11
(lp122
sg13
(lp123
ssg15
(lp124
sg17
Nsg18
I1
sg19
I15
sbsI16
g1
(g2
g3
Ntp125
Rp126
(dp127
g7
I00
sg8
I00
sg9
(dp128
g11
(lp129
sg13
(lp130
ssg15
(lp131
sg17
Nsg18
I3
sg19
I16
sbsI17
g1
(g2
g3
Ntp132
Rp133
(dp134
g7
I00
sg8
I00
sg9
(dp135
g11
(lp136
sg13
(lp137
ssg15
(lp138
sg17
Nsg18
I1
sg19
I17
sbsI18
g1
(g2
g3
Ntp139
Rp140
(dp141
g7
I00
sg8
I00
sg9
(dp142
g11
(lp143
sg13
(lp144
ssg15
(lp145
sg17
Nsg18
I1
sg19
I18
sbsI19
g1
(g2
g3
Ntp146
Rp147
(dp148
g7
I00
sg8
I00
sg9
(dp149
g11
(lp150
sg13
(lp151
ssg15
(lp152
sg17
Nsg18
I2
sg19
I19
sbsI20
g1
(g2
g3
Ntp153
Rp154
(dp155
g7
I00
sg8
I00
sg9
(dp156
g11
(lp157
sg13
(lp158
ssg15
(lp159
sg17
Nsg18
I1
sg19
I20
sbsI21
g1
(g2
g3
Ntp160
Rp161
(dp162
g7
I00
sg8
I00
sg9
(dp163
g11
(lp164
sg13
(lp165
ssg15
(lp166
sg17
Nsg18
I1
sg19
I21
sbsI22
g1
(g2
g3
Ntp167
Rp168
(dp169
g7
I00
sg8
I00
sg9
(dp170
g11
(lp171
sg13
(lp172
ssg15
(lp173
sg17
Nsg18
I1
sg19
I22
sbsI23
g1
(g2
g3
Ntp174
Rp175
(dp176
g7
I00
sg8
I00
sg9
(dp177
g11
(lp178
sg13
(lp179
ssg15
(lp180
sg17
Nsg18
I1
sg19
I23
sbsI24
g1
(g2
g3
Ntp181
Rp182
(dp183
g7
I00
sg8
I00
sg9
(dp184
g11
(lp185
sg13
(lp186
ssg15
(lp187
sg17
Nsg18
I1
sg19
I24
sbsI25
g1
(g2
g3
Ntp188
Rp189
(dp190
g7
I00
sg8
I00
sg9
(dp191
g11
(lp192
sg13
(lp193
ssg15
(lp194
sg17
Nsg18
I1
sg19
I25
sbsI26
g1
(g2
g3
Ntp195
Rp196
(dp197
g7
I00
sg8
I00
sg9
(dp198
g11
(lp199
sg13
(lp200
ssg15
(lp201
sg17
Nsg18
I3
sg19
I26
sbsI27
g1
(g2
g3
Ntp202
Rp203
(dp204
g7
I00
sg8
I00
sg9
(dp205
g11
(lp206
sg13
(lp207
ssg15
(lp208
sg17
Nsg18
I1
sg19
I27
sbsI28
g1
(g2
g3
Ntp209
Rp210
(dp211
g7
I00
sg8
I00
sg9
(dp212
g11
(lp213
sg13
(lp214
ssg15
(lp215
sg17
Nsg18
I1
sg19
I28
sbsI29
g1
(g2
g3
Ntp216
Rp217
(dp218
g7
I00
sg8
I00
sg9
(dp219
g11
(lp220
sg13
(lp221
ssg15
(lp222
sg17
Nsg18
I3
sg19
I29
sbsI30
g1
(g2
g3
Ntp223
Rp224
(dp225
g7
I00
sg8
I00
sg9
(dp226
g11
(lp227
sg13
(lp228
ssg15
(lp229
sg17
Nsg18
I0
sg19
I30
sbsI31
g1
(g2
g3
Ntp230
Rp231
(dp232
g7
I00
sg8
I00
sg9
(dp233
g11
(lp234
sg13
(lp235
ssg15
(lp236
sg17
Nsg18
I0
sg19
I31
sbsI32
g1
(g2
g3
Ntp237
Rp238
(dp239
g7
I00
sg8
I00
sg9
(dp240
g11
(lp241
sg13
(lp242
ssg15
(lp243
sg17
Nsg18
I0
sg19
I32
sbsI33
g1
(g2
g3
Ntp244
Rp245
(dp246
g7
I00
sg8
I00
sg9
(dp247
g11
(lp248
sg13
(lp249
ssg15
(lp250
sg17
Nsg18
I3
sg19
I33
sbsI34
g1
(g2
g3
Ntp251
Rp252
(dp253
g7
I00
sg8
I00
sg9
(dp254
g11
(lp255
sg13
(lp256
ssg15
(lp257
sg17
Nsg18
I0
sg19
I34
sbsI35
g1
(g2
g3
Ntp258
Rp259
(dp260
g7
I00
sg8
I00
sg9
(dp261
g11
(lp262
sg13
(lp263
ssg15
(lp264
sg17
Nsg18
I2
sg19
I35
sbsI36
g1
(g2
g3
Ntp265
Rp266
(dp267
g7
I00
sg8
I00
sg9
(dp268
g11
(lp269
sg13
(lp270
ssg15
(lp271
sg17
Nsg18
I1
sg19
I36
sbsI37
g1
(g2
g3
Ntp272
Rp273
(dp274
g7
I00
sg8
I00
sg9
(dp275
g11
(lp276
sg13
(lp277
ssg15
(lp278
sg17
Nsg18
I3
sg19
I37
sbsI38
g1
(g2
g3
Ntp279
Rp280
(dp281
g7
I00
sg8
I00
sg9
(dp282
g11
(lp283
sg13
(lp284
ssg15
(lp285
sg17
Nsg18
I1
sg19
I38
sbsI39
g1
(g2
g3
Ntp286
Rp287
(dp288
g7
I00
sg8
I00
sg9
(dp289
g11
(lp290
sg13
(lp291
ssg15
(lp292
sg17
Nsg18
I2
sg19
I39
sbsI40
g1
(g2
g3
Ntp293
Rp294
(dp295
g7
I00
sg8
I00
sg9
(dp296
g11
(lp297
sg13
(lp298
ssg15
(lp299
sg17
Nsg18
I1
sg19
I40
sbsI41
g1
(g2
g3
Ntp300
Rp301
(dp302
g7
I00
sg8
I00
sg9
(dp303
g11
(lp304
sg13
(lp305
ssg15
(lp306
sg17
Nsg18
I1
sg19
I41
sbsI42
g1
(g2
g3
Ntp307
Rp308
(dp309
g7
I00
sg8
I00
sg9
(dp310
g11
(lp311
sg13
(lp312
ssg15
(lp313
sg17
Nsg18
I3
sg19
I42
sbsI43
g1
(g2
g3
Ntp314
Rp315
(dp316
g7
I00
sg8
I00
sg9
(dp317
g11
(lp318
sg13
(lp319
ssg15
(lp320
sg17
Nsg18
I1
sg19
I43
sbsI44
g1
(g2
g3
Ntp321
Rp322
(dp323
g7
I00
sg8
I00
sg9
(dp324
g11
(lp325
sg13
(lp326
ssg15
(lp327
sg17
Nsg18
I1
sg19
I44
sbsI45
g1
(g2
g3
Ntp328
Rp329
(dp330
g7
I00
sg8
I00
sg9
(dp331
g11
(lp332
sg13
(lp333
ssg15
(lp334
sg17
Nsg18
I0
sg19
I45
sbsI46
g1
(g2
g3
Ntp335
Rp336
(dp337
g7
I00
sg8
I00
sg9
(dp338
g11
(lp339
sg13
(lp340
ssg15
(lp341
sg17
Nsg18
I2
sg19
I46
sbsI47
g1
(g2
g3
Ntp342
Rp343
(dp344
g7
I00
sg8
I00
sg9
(dp345
g11
(lp346
sg13
(lp347
ssg15
(lp348
sg17
Nsg18
I3
sg19
I47
sbsI48
g1
(g2
g3
Ntp349
Rp350
(dp351
g7
I00
sg8
I00
sg9
(dp352
g11
(lp353
sg13
(lp354
ssg15
(lp355
sg17
Nsg18
I1
sg19
I48
sbsI49
g1
(g2
g3
Ntp356
Rp357
(dp358
g7
I00
sg8
I00
sg9
(dp359
g11
(lp360
sg13
(lp361
ssg15
(lp362
sg17
Nsg18
I1
sg19
I49
sbsI50
g1
(g2
g3
Ntp363
Rp364
(dp365
g7
I00
sg8
I00
sg9
(dp366
g11
(lp367
sg13
(lp368
ssg15
(lp369
sg17
Nsg18
I1
sg19
I50
sbsI51
g1
(g2
g3
Ntp370
Rp371
(dp372
g7
I00
sg8
I00
sg9
(dp373
g11
(lp374
sg13
(lp375
ssg15
(lp376
sg17
Nsg18
I1
sg19
I51
sbsI52
g1
(g2
g3
Ntp377
Rp378
(dp379
g7
I00
sg8
I00
sg9
(dp380
g11
(lp381
sg13
(lp382
ssg15
(lp383
sg17
Nsg18
I1
sg19
I52
sbsI53
g1
(g2
g3
Ntp384
Rp385
(dp386
g7
I00
sg8
I00
sg9
(dp387
g11
(lp388
sg13
(lp389
ssg15
(lp390
sg17
Nsg18
I3
sg19
I53
sbsI54
g1
(g2
g3
Ntp391
Rp392
(dp393
g7
I00
sg8
I00
sg9
(dp394
g11
(lp395
sg13
(lp396
ssg15
(lp397
sg17
Nsg18
I1
sg19
I54
sbsI55
g1
(g2
g3
Ntp398
Rp399
(dp400
g7
I00
sg8
I00
sg9
(dp401
g11
(lp402
sg13
(lp403
ssg15
(lp404
sg17
Nsg18
I1
sg19
I55
sbsI56
g1
(g2
g3
Ntp405
Rp406
(dp407
g7
I00
sg8
I00
sg9
(dp408
g11
(lp409
sg13
(lp410
ssg15
(lp411
sg17
Nsg18
I1
sg19
I56
sbsI57
g1
(g2
g3
Ntp412
Rp413
(dp414
g7
I00
sg8
I00
sg9
(dp415
g11
(lp416
sg13
(lp417
ssg15
(lp418
sg17
Nsg18
I1
sg19
I57
sbsI58
g1
(g2
g3
Ntp419
Rp420
(dp421
g7
I00
sg8
I00
sg9
(dp422
g11
(lp423
sg13
(lp424
ssg15
(lp425
sg17
Nsg18
I0
sg19
I58
sbsI59
g1
(g2
g3
Ntp426
Rp427
(dp428
g7
I00
sg8
I00
sg9
(dp429
g11
(lp430
sg13
(lp431
ssg15
(lp432
sg17
Nsg18
I3
sg19
I59
sbsI60
g1
(g2
g3
Ntp433
Rp434
(dp435
g7
I00
sg8
I00
sg9
(dp436
g11
(lp437
sg13
(lp438
ssg15
(lp439
sg17
Nsg18
I2
sg19
I60
sbsI61
g1
(g2
g3
Ntp440
Rp441
(dp442
g7
I00
sg8
I00
sg9
(dp443
g11
(lp444
sg13
(lp445
ssg15
(lp446
sg17
Nsg18
I1
sg19
I61
sbsI62
g1
(g2
g3
Ntp447
Rp448
(dp449
g7
I00
sg8
I00
sg9
(dp450
g11
(lp451
sg13
(lp452
ssg15
(lp453
sg17
Nsg18
I2
sg19
I62
sbsI63
g1
(g2
g3
Ntp454
Rp455
(dp456
g7
I00
sg8
I00
sg9
(dp457
g11
(lp458
sg13
(lp459
ssg15
(lp460
sg17
Nsg18
I2
sg19
I63
sbsI64
g1
(g2
g3
Ntp461
Rp462
(dp463
g7
I00
sg8
I00
sg9
(dp464
g11
(lp465
sg13
(lp466
ssg15
(lp467
sg17
Nsg18
I1
sg19
I64
sbsI65
g1
(g2
g3
Ntp468
Rp469
(dp470
g7
I00
sg8
I00
sg9
(dp471
g11
(lp472
sg13
(lp473
ssg15
(lp474
sg17
Nsg18
I3
sg19
I65
sbsI66
g1
(g2
g3
Ntp475
Rp476
(dp477
g7
I00
sg8
I00
sg9
(dp478
g11
(lp479
sg13
(lp480
ssg15
(lp481
sg17
Nsg18
I0
sg19
I66
sbsI67
g1
(g2
g3
Ntp482
Rp483
(dp484
g7
I00
sg8
I00
sg9
(dp485
g11
(lp486
sg13
(lp487
ssg15
(lp488
sg17
Nsg18
I1
sg19
I67
sbsI68
g1
(g2
g3
Ntp489
Rp490
(dp491
g7
I00
sg8
I00
sg9
(dp492
g11
(lp493
sg13
(lp494
ssg15
(lp495
sg17
Nsg18
I3
sg19
I68
sbs.