(dp0
I0
ccopy_reg
_reconstructor
p1
(cLand
Land
p2
c__builtin__
object
p3
Ntp4
Rp5
(dp6
S'owner'
p7
NsS'unmanning'
p8
(lp9
sS'type'
p10
I0
sS'id'
p11
I0
sbsI1
g1
(g2
g3
Ntp12
Rp13
(dp14
g7
Nsg8
(lp15
sg10
I0
sg11
I1
sbsI2
g1
(g2
g3
Ntp16
Rp17
(dp18
g7
Nsg8
(lp19
sg10
I0
sg11
I2
sbsI3
g1
(g2
g3
Ntp20
Rp21
(dp22
g7
Nsg8
(lp23
sg10
I1
sg11
I3
sbsI4
g1
(g2
g3
Ntp24
Rp25
(dp26
g7
Nsg8
(lp27
sg10
I3
sg11
I4
sbsI5
g1
(g2
g3
Ntp28
Rp29
(dp30
g7
Nsg8
(lp31
sg10
I1
sg11
I5
sbsI6
g1
(g2
g3
Ntp32
Rp33
(dp34
g7
Nsg8
(lp35
sg10
I2
sg11
I6
sbsI7
g1
(g2
g3
Ntp36
Rp37
(dp38
g7
Nsg8
(lp39
sg10
I1
sg11
I7
sbsI8
g1
(g2
g3
Ntp40
Rp41
(dp42
g7
Nsg8
(lp43
sg10
I1
sg11
I8
sbsI9
g1
(g2
g3
Ntp44
Rp45
(dp46
g7
Nsg8
(lp47
sg10
I1
sg11
I9
sbsI10
g1
(g2
g3
Ntp48
Rp49
(dp50
g7
Nsg8
(lp51
sg10
I0
sg11
I10
sbsI11
g1
(g2
g3
Ntp52
Rp53
(dp54
g7
Nsg8
(lp55
sg10
I0
sg11
I11
sbsI12
g1
(g2
g3
Ntp56
Rp57
(dp58
g7
Nsg8
(lp59
sg10
I0
sg11
I12
sbsI13
g1
(g2
g3
Ntp60
Rp61
(dp62
g7
Nsg8
(lp63
sg10
I0
sg11
I13
sbsI14
g1
(g2
g3
Ntp64
Rp65
(dp66
g7
Nsg8
(lp67
sg10
I3
sg11
I14
sbsI15
g1
(g2
g3
Ntp68
Rp69
(dp70
g7
Nsg8
(lp71
sg10
I1
sg11
I15
sbsI16
g1
(g2
g3
Ntp72
Rp73
(dp74
g7
Nsg8
(lp75
sg10
I3
sg11
I16
sbsI17
g1
(g2
g3
Ntp76
Rp77
(dp78
g7
Nsg8
(lp79
sg10
I1
sg11
I17
sbsI18
g1
(g2
g3
Ntp80
Rp81
(dp82
g7
Nsg8
(lp83
sg10
I1
sg11
I18
sbsI19
g1
(g2
g3
Ntp84
Rp85
(dp86
g7
Nsg8
(lp87
sg10
I2
sg11
I19
sbsI20
g1
(g2
g3
Ntp88
Rp89
(dp90
g7
Nsg8
(lp91
sg10
I1
sg11
I20
sbsI21
g1
(g2
g3
Ntp92
Rp93
(dp94
g7
Nsg8
(lp95
sg10
I1
sg11
I21
sbsI22
g1
(g2
g3
Ntp96
Rp97
(dp98
g7
Nsg8
(lp99
sg10
I1
sg11
I22
sbsI23
g1
(g2
g3
Ntp100
Rp101
(dp102
g7
Nsg8
(lp103
sg10
I1
sg11
I23
sbsI24
g1
(g2
g3
Ntp104
Rp105
(dp106
g7
Nsg8
(lp107
sg10
I1
sg11
I24
sbsI25
g1
(g2
g3
Ntp108
Rp109
(dp110
g7
Nsg8
(lp111
sg10
I1
sg11
I25
sbsI26
g1
(g2
g3
Ntp112
Rp113
(dp114
g7
Nsg8
(lp115
sg10
I3
sg11
I26
sbsI27
g1
(g2
g3
Ntp116
Rp117
(dp118
g7
Nsg8
(lp119
sg10
I1
sg11
I27
sbsI28
g1
(g2
g3
Ntp120
Rp121
(dp122
g7
Nsg8
(lp123
sg10
I1
sg11
I28
sbsI29
g1
(g2
g3
Ntp124
Rp125
(dp126
g7
Nsg8
(lp127
sg10
I3
sg11
I29
sbsI30
g1
(g2
g3
Ntp128
Rp129
(dp130
g7
Nsg8
(lp131
sg10
I0
sg11
I30
sbsI31
g1
(g2
g3
Ntp132
Rp133
(dp134
g7
Nsg8
(lp135
sg10
I0
sg11
I31
sbsI32
g1
(g2
g3
Ntp136
Rp137
(dp138
g7
Nsg8
(lp139
sg10
I0
sg11
I32
sbsI33
g1
(g2
g3
Ntp140
Rp141
(dp142
g7
Nsg8
(lp143
sg10
I3
sg11
I33
sbsI34
g1
(g2
g3
Ntp144
Rp145
(dp146
g7
Nsg8
(lp147
sg10
I0
sg11
I34
sbsI35
g1
(g2
g3
Ntp148
Rp149
(dp150
g7
Nsg8
(lp151
sg10
I2
sg11
I35
sbsI36
g1
(g2
g3
Ntp152
Rp153
(dp154
g7
Nsg8
(lp155
sg10
I1
sg11
I36
sbsI37
g1
(g2
g3
Ntp156
Rp157
(dp158
g7
Nsg8
(lp159
sg10
I3
sg11
I37
sbsI38
g1
(g2
g3
Ntp160
Rp161
(dp162
g7
Nsg8
(lp163
sg10
I1
sg11
I38
sbsI39
g1
(g2
g3
Ntp164
Rp165
(dp166
g7
Nsg8
(lp167
sg10
I2
sg11
I39
sbsI40
g1
(g2
g3
Ntp168
Rp169
(dp170
g7
Nsg8
(lp171
sg10
I1
sg11
I40
sbsI41
g1
(g2
g3
Ntp172
Rp173
(dp174
g7
Nsg8
(lp175
sg10
I1
sg11
I41
sbsI42
g1
(g2
g3
Ntp176
Rp177
(dp178
g7
Nsg8
(lp179
sg10
I3
sg11
I42
sbsI43
g1
(g2
g3
Ntp180
Rp181
(dp182
g7
Nsg8
(lp183
sg10
I1
sg11
I43
sbsI44
g1
(g2
g3
Ntp184
Rp185
(dp186
g7
Nsg8
(lp187
sg10
I1
sg11
I44
sbsI45
g1
(g2
g3
Ntp188
Rp189
(dp190
g7
Nsg8
(lp191
sg10
I0
sg11
I45
sbsI46
g1
(g2
g3
Ntp192
Rp193
(dp194
g7
Nsg8
(lp195
sg10
I2
sg11
I46
sbsI47
g1
(g2
g3
Ntp196
Rp197
(dp198
g7
Nsg8
(lp199
sg10
I3
sg11
I47
sbsI48
g1
(g2
g3
Ntp200
Rp201
(dp202
g7
Nsg8
(lp203
sg10
I1
sg11
I48
sbsI49
g1
(g2
g3
Ntp204
Rp205
(dp206
g7
Nsg8
(lp207
sg10
I1
sg11
I49
sbsI50
g1
(g2
g3
Ntp208
Rp209
(dp210
g7
Nsg8
(lp211
sg10
I1
sg11
I50
sbsI51
g1
(g2
g3
Ntp212
Rp213
(dp214
g7
Nsg8
(lp215
sg10
I1
sg11
I51
sbsI52
g1
(g2
g3
Ntp216
Rp217
(dp218
g7
Nsg8
(lp219
sg10
I1
sg11
I52
sbsI53
g1
(g2
g3
Ntp220
Rp221
(dp222
g7
Nsg8
(lp223
sg10
I3
sg11
I53
sbsI54
g1
(g2
g3
Ntp224
Rp225
(dp226
g7
Nsg8
(lp227
sg10
I1
sg11
I54
sbsI55
g1
(g2
g3
Ntp228
Rp229
(dp230
g7
Nsg8
(lp231
sg10
I1
sg11
I55
sbsI56
g1
(g2
g3
Ntp232
Rp233
(dp234
g7
Nsg8
(lp235
sg10
I1
sg11
I56
sbsI57
g1
(g2
g3
Ntp236
Rp237
(dp238
g7
Nsg8
(lp239
sg10
I1
sg11
I57
sbsI58
g1
(g2
g3
Ntp240
Rp241
(dp242
g7
Nsg8
(lp243
sg10
I0
sg11
I58
sbsI59
g1
(g2
g3
Ntp244
Rp245
(dp246
g7
Nsg8
(lp247
sg10
I3
sg11
I59
sbsI60
g1
(g2
g3
Ntp248
Rp249
(dp250
g7
Nsg8
(lp251
sg10
I2
sg11
I60
sbsI61
g1
(g2
g3
Ntp252
Rp253
(dp254
g7
Nsg8
(lp255
sg10
I1
sg11
I61
sbsI62
g1
(g2
g3
Ntp256
Rp257
(dp258
g7
Nsg8
(lp259
sg10
I2
sg11
I62
sbsI63
g1
(g2
g3
Ntp260
Rp261
(dp262
g7
Nsg8
(lp263
sg10
I2
sg11
I63
sbsI64
g1
(g2
g3
Ntp264
Rp265
(dp266
g7
Nsg8
(lp267
sg10
I1
sg11
I64
sbsI65
g1
(g2
g3
Ntp268
Rp269
(dp270
g7
Nsg8
(lp271
sg10
I3
sg11
I65
sbsI66
g1
(g2
g3
Ntp272
Rp273
(dp274
g7
Nsg8
(lp275
sg10
I0
sg11
I66
sbsI67
g1
(g2
g3
Ntp276
Rp277
(dp278
g7
Nsg8
(lp279
sg10
I1
sg11
I67
sbsI68
g1
(g2
g3
Ntp280
Rp281
(dp282
g7
Nsg8
(lp283
sg10
I3
sg11
I68
sbs.