(dp0
I261
ccopy_reg
_reconstructor
p1
(cSoldier
Soldier
p2
c__builtin__
object
p3
Ntp4
Rp5
(dp6
S'owner'
p7
I903
sS'state'
p8
I1
sS'station'
p9
NsS'type'
p10
S'K'
p11
sS'id'
p12
I261
sbsI262
g1
(g2
g3
Ntp13
Rp14
(dp15
g7
I903
sg8
I1
sg9
Nsg10
g11
sg12
I262
sbsI263
g1
(g2
g3
Ntp16
Rp17
(dp18
g7
I903
sg8
I1
sg9
Nsg10
g11
sg12
I263
sbsI264
g1
(g2
g3
Ntp19
Rp20
(dp21
g7
I903
sg8
I1
sg9
Nsg10
g11
sg12
I264
sbsI265
g1
(g2
g3
Ntp22
Rp23
(dp24
g7
I903
sg8
I1
sg9
Nsg10
S'W'
p25
sg12
I265
sbsI266
g1
(g2
g3
Ntp26
Rp27
(dp28
g7
I903
sg8
I1
sg9
Nsg10
g25
sg12
I266
sbsI267
g1
(g2
g3
Ntp29
Rp30
(dp31
g7
I903
sg8
I1
sg9
Nsg10
g25
sg12
I267
sbsI268
g1
(g2
g3
Ntp32
Rp33
(dp34
g7
I903
sg8
I1
sg9
Nsg10
g25
sg12
I268
sbsI269
g1
(g2
g3
Ntp35
Rp36
(dp37
g7
I903
sg8
I1
sg9
Nsg10
g25
sg12
I269
sbsI270
g1
(g2
g3
Ntp38
Rp39
(dp40
g7
I903
sg8
I1
sg9
Nsg10
g25
sg12
I270
sbsI271
g1
(g2
g3
Ntp41
Rp42
(dp43
g7
I903
sg8
I1
sg9
Nsg10
g25
sg12
I271
sbsI272
g1
(g2
g3
Ntp44
Rp45
(dp46
g7
I903
sg8
I1
sg9
Nsg10
g25
sg12
I272
sbsI201
g1
(g2
g3
Ntp47
Rp48
(dp49
g7
I900
sg8
I1
sg9
Nsg10
g11
sg12
I201
sbsI202
g1
(g2
g3
Ntp50
Rp51
(dp52
g7
I900
sg8
I1
sg9
Nsg10
g11
sg12
I202
sbsI203
g1
(g2
g3
Ntp53
Rp54
(dp55
g7
I900
sg8
I1
sg9
Nsg10
g11
sg12
I203
sbsI204
g1
(g2
g3
Ntp56
Rp57
(dp58
g7
I900
sg8
I1
sg9
Nsg10
g11
sg12
I204
sbsI205
g1
(g2
g3
Ntp59
Rp60
(dp61
g7
I900
sg8
I1
sg9
Nsg10
g25
sg12
I205
sbsI206
g1
(g2
g3
Ntp62
Rp63
(dp64
g7
I900
sg8
I1
sg9
Nsg10
g25
sg12
I206
sbsI207
g1
(g2
g3
Ntp65
Rp66
(dp67
g7
I900
sg8
I1
sg9
Nsg10
g25
sg12
I207
sbsI208
g1
(g2
g3
Ntp68
Rp69
(dp70
g7
I900
sg8
I1
sg9
Nsg10
g25
sg12
I208
sbsI209
g1
(g2
g3
Ntp71
Rp72
(dp73
g7
I900
sg8
I1
sg9
Nsg10
g25
sg12
I209
sbsI210
g1
(g2
g3
Ntp74
Rp75
(dp76
g7
I900
sg8
I1
sg9
Nsg10
g25
sg12
I210
sbsI211
g1
(g2
g3
Ntp77
Rp78
(dp79
g7
I900
sg8
I1
sg9
Nsg10
g25
sg12
I211
sbsI212
g1
(g2
g3
Ntp80
Rp81
(dp82
g7
I900
sg8
I1
sg9
Nsg10
g25
sg12
I212
sbsI221
g1
(g2
g3
Ntp83
Rp84
(dp85
g7
I901
sg8
I1
sg9
Nsg10
g11
sg12
I221
sbsI222
g1
(g2
g3
Ntp86
Rp87
(dp88
g7
I901
sg8
I1
sg9
Nsg10
g11
sg12
I222
sbsI223
g1
(g2
g3
Ntp89
Rp90
(dp91
g7
I901
sg8
I1
sg9
Nsg10
g11
sg12
I223
sbsI224
g1
(g2
g3
Ntp92
Rp93
(dp94
g7
I901
sg8
I1
sg9
Nsg10
g11
sg12
I224
sbsI225
g1
(g2
g3
Ntp95
Rp96
(dp97
g7
I901
sg8
I1
sg9
Nsg10
g25
sg12
I225
sbsI226
g1
(g2
g3
Ntp98
Rp99
(dp100
g7
I901
sg8
I1
sg9
Nsg10
g25
sg12
I226
sbsI227
g1
(g2
g3
Ntp101
Rp102
(dp103
g7
I901
sg8
I1
sg9
Nsg10
g25
sg12
I227
sbsI228
g1
(g2
g3
Ntp104
Rp105
(dp106
g7
I901
sg8
I1
sg9
Nsg10
g25
sg12
I228
sbsI229
g1
(g2
g3
Ntp107
Rp108
(dp109
g7
I901
sg8
I1
sg9
Nsg10
g25
sg12
I229
sbsI230
g1
(g2
g3
Ntp110
Rp111
(dp112
g7
I901
sg8
I1
sg9
Nsg10
g25
sg12
I230
sbsI231
g1
(g2
g3
Ntp113
Rp114
(dp115
g7
I901
sg8
I1
sg9
Nsg10
g25
sg12
I231
sbsI232
g1
(g2
g3
Ntp116
Rp117
(dp118
g7
I901
sg8
I1
sg9
Nsg10
g25
sg12
I232
sbsI241
g1
(g2
g3
Ntp119
Rp120
(dp121
g7
I902
sg8
I1
sg9
Nsg10
g11
sg12
I241
sbsI242
g1
(g2
g3
Ntp122
Rp123
(dp124
g7
I902
sg8
I1
sg9
Nsg10
g11
sg12
I242
sbsI243
g1
(g2
g3
Ntp125
Rp126
(dp127
g7
I902
sg8
I1
sg9
Nsg10
g11
sg12
I243
sbsI244
g1
(g2
g3
Ntp128
Rp129
(dp130
g7
I902
sg8
I1
sg9
Nsg10
g11
sg12
I244
sbsI245
g1
(g2
g3
Ntp131
Rp132
(dp133
g7
I902
sg8
I1
sg9
Nsg10
g25
sg12
I245
sbsI246
g1
(g2
g3
Ntp134
Rp135
(dp136
g7
I902
sg8
I1
sg9
Nsg10
g25
sg12
I246
sbsI247
g1
(g2
g3
Ntp137
Rp138
(dp139
g7
I902
sg8
I1
sg9
Nsg10
g25
sg12
I247
sbsI248
g1
(g2
g3
Ntp140
Rp141
(dp142
g7
I902
sg8
I1
sg9
Nsg10
g25
sg12
I248
sbsI249
g1
(g2
g3
Ntp143
Rp144
(dp145
g7
I902
sg8
I1
sg9
Nsg10
g25
sg12
I249
sbsI250
g1
(g2
g3
Ntp146
Rp147
(dp148
g7
I902
sg8
I1
sg9
Nsg10
g25
sg12
I250
sbsI251
g1
(g2
g3
Ntp149
Rp150
(dp151
g7
I902
sg8
I1
sg9
Nsg10
g25
sg12
I251
sbsI252
g1
(g2
g3
Ntp152
Rp153
(dp154
g7
I902
sg8
I1
sg9
Nsg10
g25
sg12
I252
sbs.